; Function Attrs: mustprogress uwtable
define noundef ptr @_ZN6icu_7513MeasureFormat20createCurrencyFormatERKNS_6LocaleER10UErrorCode(ptr noundef nonnull align 8 dereferenceable(217) %locale, ptr noundef nonnull align 4 dereferenceable(4) %ec) local_unnamed_addr #1 align 2 personality ptr @__gxx_personality_v0 {
entry:
  %0 = load i32, ptr %ec, align 4
  %cmp.i = icmp slt i32 %0, 1
  br i1 %cmp.i, label %if.end, label %return

if.end:                                           ; preds = %entry
  %call1 = tail call noundef ptr @_ZN6icu_757UMemorynwEm(i64 noundef 368) #16
  %new.isnull = icmp eq ptr %call1, null
  br i1 %new.isnull, label %new.cont, label %new.notnull

new.notnull:                                      ; preds = %if.end
  invoke void @_ZN6icu_7514CurrencyFormatC1ERKNS_6LocaleER10UErrorCode(ptr noundef nonnull align 8 dereferenceable(368) %call1, ptr noundef nonnull align 8 dereferenceable(217) %locale, ptr noundef nonnull align 4 dereferenceable(4) %ec)
          to label %return unwind label %lpad

new.cont:                                         ; preds = %if.end
  %1 = load i32, ptr %ec, align 4
  %cmp.i.i = icmp sgt i32 %1, 0
  br i1 %cmp.i.i, label %return, label %if.then.i

if.then.i:                                        ; preds = %new.cont
  store i32 7, ptr %ec, align 4
  br label %return

lpad:                                             ; preds = %new.notnull
  %2 = landingpad { ptr, i32 }
          cleanup
  tail call void @_ZN6icu_757UMemorydlEPv(ptr noundef nonnull %call1) #16
  resume { ptr, i32 } %2

return:                                           ; preds = %new.notnull, %new.cont, %if.then.i, %entry
  %retval.0 = phi ptr [ null, %entry ], [ null, %new.cont ], [ null, %if.then.i ], [ %call1, %new.notnull ]
  ret ptr %retval.0
}